; Function Attrs: mustprogress nofree norecurse nosync nounwind willreturn memory(read, inaccessiblemem: none) uwtable
define noundef range(i64 -1, 9223372036854775807) i64 @_ZNK6google8protobuf11StringPiece12find_last_ofES1_m(ptr noundef nonnull readonly align 8 captures(none) dereferenceable(16) %0, ptr readonly captures(none) %1, i64 %2, i64 noundef %3) local_unnamed_addr #10 align 2 {
  %5 = alloca [256 x i8], align 16
  %6 = getelementptr inbounds nuw i8, ptr %0, i64 8
  %7 = load i64, ptr %6, align 8, !tbaa !10
  %8 = icmp slt i64 %7, 1
  %9 = icmp slt i64 %2, 1
  %or.cond = select i1 %8, i1 true, i1 %9
  br i1 %or.cond, label %_ZNK6google8protobuf11StringPiece12find_last_ofEcm.exit, label %10

10:                                               ; preds = %4
  %11 = icmp eq i64 %2, 1
  br i1 %11, label %.lr.ph.i.i, label %21

.lr.ph.i.i:                                       ; preds = %10
  %12 = load i8, ptr %1, align 1, !tbaa !16
  %13 = add nsw i64 %7, -1
  %spec.select12.i.i = tail call i64 @llvm.umin.i64(i64 %13, i64 %3)
  %14 = load ptr, ptr %0, align 8, !tbaa !3
  br label %15

15:                                               ; preds = %select.unfold.i.i, %.lr.ph.i.i
  %.0713.i.i = phi i64 [ %spec.select12.i.i, %.lr.ph.i.i ], [ %19, %select.unfold.i.i ]
  %16 = getelementptr inbounds nuw i8, ptr %14, i64 %.0713.i.i
  %17 = load i8, ptr %16, align 1, !tbaa !16
  %18 = icmp eq i8 %17, %12
  br i1 %18, label %_ZNK6google8protobuf11StringPiece12find_last_ofEcm.exit, label %select.unfold.i.i

select.unfold.i.i:                                ; preds = %15
  %19 = add nsw i64 %.0713.i.i, -1
  %20 = icmp slt i64 %.0713.i.i, 1
  br i1 %20, label %_ZNK6google8protobuf11StringPiece12find_last_ofEcm.exit, label %15, !llvm.loop !17

21:                                               ; preds = %10
  call void @llvm.lifetime.start.p0(i64 256, ptr nonnull %5) #16
  call void @llvm.memset.p0.i64(ptr noundef nonnull align 16 dereferenceable(256) %5, i8 0, i64 256, i1 false)
  br label %22

22:                                               ; preds = %22, %21
  %.05.i = phi i64 [ 0, %21 ], [ %27, %22 ]
  %23 = getelementptr inbounds nuw i8, ptr %1, i64 %.05.i
  %24 = load i8, ptr %23, align 1, !tbaa !16
  %25 = zext i8 %24 to i64
  %26 = getelementptr inbounds nuw i8, ptr %5, i64 %25
  store i8 1, ptr %26, align 1, !tbaa !19
  %27 = add nuw nsw i64 %.05.i, 1
  %exitcond.not.i = icmp eq i64 %27, %2
  br i1 %exitcond.not.i, label %_ZN6google8protobufL16BuildLookupTableENS0_11StringPieceEPb.exit, label %22, !llvm.loop !21

_ZN6google8protobufL16BuildLookupTableENS0_11StringPieceEPb.exit: ; preds = %22
  %28 = add nsw i64 %7, -1
  %spec.select17 = tail call i64 @llvm.umin.i64(i64 %28, i64 %3)
  %29 = load ptr, ptr %0, align 8, !tbaa !3
  br label %30

30:                                               ; preds = %_ZN6google8protobufL16BuildLookupTableENS0_11StringPieceEPb.exit, %select.unfold
  %.01118 = phi i64 [ %spec.select17, %_ZN6google8protobufL16BuildLookupTableENS0_11StringPieceEPb.exit ], [ %37, %select.unfold ]
  %31 = getelementptr inbounds nuw i8, ptr %29, i64 %.01118
  %32 = load i8, ptr %31, align 1, !tbaa !16
  %33 = zext i8 %32 to i64
  %34 = getelementptr inbounds nuw [256 x i8], ptr %5, i64 0, i64 %33
  %35 = load i8, ptr %34, align 1, !tbaa !19, !range !22, !noundef !23
  %36 = trunc nuw i8 %35 to i1
  br i1 %36, label %._crit_edge, label %select.unfold

select.unfold:                                    ; preds = %30
  %37 = add nsw i64 %.01118, -1
  %38 = icmp slt i64 %.01118, 1
  br i1 %38, label %._crit_edge, label %30, !llvm.loop !27

._crit_edge:                                      ; preds = %select.unfold, %30
  %spec.select.ph = phi i64 [ %.01118, %30 ], [ -1, %select.unfold ]
  call void @llvm.lifetime.end.p0(i64 256, ptr nonnull %5) #16
  br label %_ZNK6google8protobuf11StringPiece12find_last_ofEcm.exit

_ZNK6google8protobuf11StringPiece12find_last_ofEcm.exit: ; preds = %select.unfold.i.i, %15, %4, %._crit_edge
  %.012 = phi i64 [ %spec.select.ph, %._crit_edge ], [ -1, %4 ], [ %.0713.i.i, %15 ], [ -1, %select.unfold.i.i ]
  ret i64 %.012
}